; Function Attrs: mustprogress uwtable
define hidden void @_ZNK4cvc58internal7printer4smt211Smt2Printer33toStreamCmdGetTimeoutCoreAssumingERSoRKSt6vectorINS0_12NodeTemplateILb1EEESaIS7_EE(ptr nonnull readnone align 8 captures(none) %0, ptr noundef nonnull align 8 dereferenceable(8) %1, ptr noundef nonnull readonly align 8 captures(none) dereferenceable(24) %2) unnamed_addr #3 align 2 personality ptr @__gxx_personality_v0 {
  %4 = tail call noundef nonnull align 8 dereferenceable(8) ptr @_ZSt16__ostream_insertIcSt11char_traitsIcEERSt13basic_ostreamIT_T0_ES6_PKS3_l(ptr noundef nonnull align 8 dereferenceable(8) %1, ptr noundef nonnull @.str.416, i64 noundef 28)
  %5 = load ptr, ptr %2, align 8, !tbaa !21
  %6 = getelementptr inbounds nuw i8, ptr %2, i64 8
  %7 = load ptr, ptr %6, align 8, !tbaa !21
  %.not14 = icmp eq ptr %5, %7
  br i1 %.not14, label %._crit_edge, label %.lr.ph

._crit_edge:                                      ; preds = %_ZN4cvc58internallsERSoNS0_12NodeTemplateILb0EEE.exit, %3
  %8 = tail call noundef nonnull align 8 dereferenceable(8) ptr @_ZSt16__ostream_insertIcSt11char_traitsIcEERSt13basic_ostreamIT_T0_ES6_PKS3_l(ptr noundef nonnull align 8 dereferenceable(8) %1, ptr noundef nonnull @.str.62, i64 noundef 2)
  ret void

.lr.ph:                                           ; preds = %3, %_ZN4cvc58internallsERSoNS0_12NodeTemplateILb0EEE.exit
  %.016 = phi i1 [ false, %_ZN4cvc58internallsERSoNS0_12NodeTemplateILb0EEE.exit ], [ true, %3 ]
  %.sroa.011.015 = phi ptr [ %12, %_ZN4cvc58internallsERSoNS0_12NodeTemplateILb0EEE.exit ], [ %5, %3 ]
  br i1 %.016, label %_ZN4cvc58internallsERSoNS0_12NodeTemplateILb0EEE.exit, label %9

9:                                                ; preds = %.lr.ph
  %10 = tail call noundef nonnull align 8 dereferenceable(8) ptr @_ZSt16__ostream_insertIcSt11char_traitsIcEERSt13basic_ostreamIT_T0_ES6_PKS3_l(ptr noundef nonnull align 8 dereferenceable(8) %1, ptr noundef nonnull @.str.2, i64 noundef 1)
  br label %_ZN4cvc58internallsERSoNS0_12NodeTemplateILb0EEE.exit

_ZN4cvc58internallsERSoNS0_12NodeTemplateILb0EEE.exit: ; preds = %.lr.ph, %9
  %11 = load ptr, ptr %.sroa.011.015, align 8, !tbaa !17
  tail call void @_ZNK4cvc58internal4expr9NodeValue8toStreamERSo(ptr noundef nonnull align 8 dereferenceable(24) %11, ptr noundef nonnull align 8 dereferenceable(8) %1)
  %12 = getelementptr inbounds nuw i8, ptr %.sroa.011.015, i64 8
  %.not = icmp eq ptr %12, %7
  br i1 %.not, label %._crit_edge, label %.lr.ph
}